---
triple:          'arm64-apple-darwin'
binary-path:     '/Users/elinagalimova/study/progrmmingTechnoligies/proga 3 semestr C++/Cpp_Romanenko/sbornik_cpp/p160_ex21'
relocations:
  - { offsetInCU: 0x4B7C, offset: 0x4B7C, size: 0x8, addend: 0x0, symName: __ZNSt3__124__put_character_sequenceB7v160006IcNS_11char_traitsIcEEEERNS_13basic_ostreamIT_T0_EES7_PKS4_m, symObjAddr: 0x3288, symBinAddr: 0x100006518, symSize: 0x1F4 }
  - { offsetInCU: 0x66B4, offset: 0x66B4, size: 0x8, addend: 0x0, symName: __ZNSt3__1lsB7v160006INS_11char_traitsIcEEEERNS_13basic_ostreamIcT_EES6_PKc, symObjAddr: 0x584, symBinAddr: 0x100003814, symSize: 0x48 }
  - { offsetInCU: 0x66FA, offset: 0x66FA, size: 0x8, addend: 0x0, symName: __ZNSt3__14endlB7v160006IcNS_11char_traitsIcEEEERNS_13basic_ostreamIT_T0_EES7_, symObjAddr: 0x5F8, symBinAddr: 0x100003888, symSize: 0x58 }
  - { offsetInCU: 0x673A, offset: 0x673A, size: 0x8, addend: 0x0, symName: __ZNSt3__1neB7v160006IP10ExamResultEEbRKNS_11__wrap_iterIT_EES7_, symObjAddr: 0x6B0, symBinAddr: 0x100003940, symSize: 0x34 }
  - { offsetInCU: 0x7055, offset: 0x7055, size: 0x8, addend: 0x0, symName: __ZNSt3__1rsB7v160006IcNS_11char_traitsIcEEEERNS_13basic_istreamIT_T0_EES7_RS4_, symObjAddr: 0x804, symBinAddr: 0x100003A94, symSize: 0x190 }
  - { offsetInCU: 0x70D7, offset: 0x70D7, size: 0x8, addend: 0x0, symName: __ZNSt3__1lsB7v160006IcNS_11char_traitsIcEENS_9allocatorIcEEEERNS_13basic_ostreamIT_T0_EES9_RKNS_12basic_stringIS6_S7_T1_EE, symObjAddr: 0x994, symBinAddr: 0x100003C24, symSize: 0x4C }
  - { offsetInCU: 0x713A, offset: 0x713A, size: 0x8, addend: 0x0, symName: __ZNSt3__119__debug_db_insert_cB7v160006INS_12basic_stringIcNS_11char_traitsIcEENS_9allocatorIcEEEEEEvPT_, symObjAddr: 0xC50, symBinAddr: 0x100003EE0, symSize: 0x10 }
  - { offsetInCU: 0x716B, offset: 0x716B, size: 0x8, addend: 0x0, symName: __ZNSt3__130__libcpp_is_constant_evaluatedB7v160006Ev, symObjAddr: 0xDF0, symBinAddr: 0x100004080, symSize: 0xC }
  - { offsetInCU: 0x7188, offset: 0x7188, size: 0x8, addend: 0x0, symName: __ZNSt3__117__libcpp_allocateB7v160006Emm, symObjAddr: 0x10E8, symBinAddr: 0x100004378, symSize: 0x28 }
  - { offsetInCU: 0x71C5, offset: 0x71C5, size: 0x8, addend: 0x0, symName: __ZNSt3__121__libcpp_operator_newB7v160006IJmEEEPvDpT_, symObjAddr: 0x1124, symBinAddr: 0x1000043B4, symSize: 0x24 }
  - { offsetInCU: 0x71FE, offset: 0x71FE, size: 0x8, addend: 0x0, symName: __ZNSt3__119__debug_db_insert_cB7v160006INS_6vectorI10ExamResultNS_9allocatorIS2_EEEEEEvPT_, symObjAddr: 0x143C, symBinAddr: 0x1000046CC, symSize: 0x10 }
  - { offsetInCU: 0x722F, offset: 0x722F, size: 0x8, addend: 0x0, symName: __ZNSt3__118__debug_db_erase_cB7v160006INS_6vectorI10ExamResultNS_9allocatorIS2_EEEEEEvPT_, symObjAddr: 0x1714, symBinAddr: 0x1000049A4, symSize: 0x10 }
  - { offsetInCU: 0x7260, offset: 0x7260, size: 0x8, addend: 0x0, symName: __ZNSt3__112__to_addressB7v160006I10ExamResultEEPT_S3_, symObjAddr: 0x1858, symBinAddr: 0x100004AE8, symSize: 0x14 }
  - { offsetInCU: 0x7295, offset: 0x7295, size: 0x8, addend: 0x0, symName: __ZNSt3__119__libcpp_deallocateB7v160006EPvmm, symObjAddr: 0x19D4, symBinAddr: 0x100004C64, symSize: 0x30 }
  - { offsetInCU: 0x72DD, offset: 0x72DD, size: 0x8, addend: 0x0, symName: __ZNSt3__127__do_deallocate_handle_sizeB7v160006IJEEEvPvmDpT_, symObjAddr: 0x1A04, symBinAddr: 0x100004C94, symSize: 0x28 }
  - { offsetInCU: 0x731B, offset: 0x731B, size: 0x8, addend: 0x0, symName: __ZNSt3__124__libcpp_operator_deleteB7v160006IJPvEEEvDpT_, symObjAddr: 0x1A2C, symBinAddr: 0x100004CBC, symSize: 0x24 }
  - { offsetInCU: 0x7350, offset: 0x7350, size: 0x8, addend: 0x0, symName: __ZNSt3__13maxB7v160006ImEERKT_S3_S3_, symObjAddr: 0x21F4, symBinAddr: 0x100005484, symSize: 0x2C }
  - { offsetInCU: 0x7393, offset: 0x7393, size: 0x8, addend: 0x0, symName: __ZNSt3__13minB7v160006ImEERKT_S3_S3_, symObjAddr: 0x2220, symBinAddr: 0x1000054B0, symSize: 0x2C }
  - { offsetInCU: 0x75D7, offset: 0x75D7, size: 0x8, addend: 0x0, symName: __ZNSt3__13minB7v160006ImNS_6__lessImmEEEERKT_S5_S5_T0_, symObjAddr: 0x22AC, symBinAddr: 0x10000553C, symSize: 0x54 }
  - { offsetInCU: 0x766C, offset: 0x766C, size: 0x8, addend: 0x0, symName: __ZNSt3__120__throw_length_errorB7v160006EPKc, symObjAddr: 0x2394, symBinAddr: 0x100005624, symSize: 0x64 }
  - { offsetInCU: 0x7694, offset: 0x7694, size: 0x8, addend: 0x0, symName: __ZNSt3__13maxB7v160006ImNS_6__lessImmEEEERKT_S5_S5_T0_, symObjAddr: 0x2478, symBinAddr: 0x100005708, symSize: 0x54 }
  - { offsetInCU: 0x76EE, offset: 0x76EE, size: 0x8, addend: 0x0, symName: __ZNSt3__119__allocate_at_leastB7v160006INS_9allocatorI10ExamResultEEEENS_19__allocation_resultINS_16allocator_traitsIT_E7pointerEEERS6_m, symObjAddr: 0x25E8, symBinAddr: 0x100005878, symSize: 0x40 }
  - { offsetInCU: 0x7731, offset: 0x7731, size: 0x8, addend: 0x0, symName: __ZNSt3__142__uninitialized_allocator_move_if_noexceptB7v160006INS_9allocatorI10ExamResultEENS_16reverse_iteratorIPS2_EES6_S6_EET2_RT_T0_T1_S7_, symObjAddr: 0x27D0, symBinAddr: 0x100005A60, symSize: 0x134 }
  - { offsetInCU: 0x77D1, offset: 0x77D1, size: 0x8, addend: 0x0, symName: __ZNSt3__14swapB7v160006IP10ExamResultEEvRT_S4_, symObjAddr: 0x2950, symBinAddr: 0x100005BE0, symSize: 0x3C }
  - { offsetInCU: 0x7822, offset: 0x7822, size: 0x8, addend: 0x0, symName: __ZNSt3__125__debug_db_invalidate_allB7v160006INS_6vectorI10ExamResultNS_9allocatorIS2_EEEEEEvPT_, symObjAddr: 0x2A54, symBinAddr: 0x100005CE4, symSize: 0x10 }
  - { offsetInCU: 0x7853, offset: 0x7853, size: 0x8, addend: 0x0, symName: __ZNSt3__122__make_exception_guardB7v160006INS_29_AllocatorDestroyRangeReverseINS_9allocatorI10ExamResultEENS_16reverse_iteratorIPS3_EEEEEENS_28__exception_guard_exceptionsIT_EESA_, symObjAddr: 0x2A64, symBinAddr: 0x100005CF4, symSize: 0x4C }
  - { offsetInCU: 0x7889, offset: 0x7889, size: 0x8, addend: 0x0, symName: __ZNSt3__1neB7v160006IP10ExamResultS2_EEbRKNS_16reverse_iteratorIT_EERKNS3_IT0_EE, symObjAddr: 0x2AF4, symBinAddr: 0x100005D84, symSize: 0x48 }
  - { offsetInCU: 0x78D5, offset: 0x78D5, size: 0x8, addend: 0x0, symName: __ZNSt3__112__to_addressB7v160006INS_16reverse_iteratorIP10ExamResultEEvEENS_5decayIDTclsr19__to_address_helperIT_EE6__callclsr3stdE7declvalIRKS6_EEEEE4typeES8_, symObjAddr: 0x2B3C, symBinAddr: 0x100005DCC, symSize: 0x24 }
  - { offsetInCU: 0x7934, offset: 0x7934, size: 0x8, addend: 0x0, symName: __ZNSt3__119__allocator_destroyB7v160006INS_9allocatorI10ExamResultEENS_16reverse_iteratorINS4_IPS2_EEEES7_EEvRT_T0_T1_, symObjAddr: 0x2DF8, symBinAddr: 0x100006088, symSize: 0x70 }
  - { offsetInCU: 0x7999, offset: 0x7999, size: 0x8, addend: 0x0, symName: __ZNSt3__1neB7v160006INS_16reverse_iteratorIP10ExamResultEES4_EEbRKNS1_IT_EERKNS1_IT0_EE, symObjAddr: 0x2EA4, symBinAddr: 0x100006134, symSize: 0x60 }
  - { offsetInCU: 0x79E5, offset: 0x79E5, size: 0x8, addend: 0x0, symName: __ZNSt3__112__to_addressB7v160006INS_16reverse_iteratorINS1_IP10ExamResultEEEEvEENS_5decayIDTclsr19__to_address_helperIT_EE6__callclsr3stdE7declvalIRKS7_EEEEE4typeES9_, symObjAddr: 0x2F04, symBinAddr: 0x100006194, symSize: 0x24 }
  - { offsetInCU: 0x7A44, offset: 0x7A44, size: 0x8, addend: 0x0, symName: __ZNSt3__116__pad_and_outputB7v160006IcNS_11char_traitsIcEEEENS_19ostreambuf_iteratorIT_T0_EES6_PKS4_S8_S8_RNS_8ios_baseES4_, symObjAddr: 0x34E0, symBinAddr: 0x100006770, symSize: 0x248 }
  - { offsetInCU: 0x7B13, offset: 0x7B13, size: 0x8, addend: 0x0, symName: __ZNSt3__112__to_addressB7v160006IKcEEPT_S3_, symObjAddr: 0x3960, symBinAddr: 0x100006BF0, symSize: 0x14 }
  - { offsetInCU: 0x7B7B, offset: 0x7B7B, size: 0x8, addend: 0x0, symName: __ZNSt3__19use_facetB7v160006INS_5ctypeIcEEEERKT_RKNS_6localeE, symObjAddr: 0x3C38, symBinAddr: 0x100006EC8, symSize: 0x2C }
  - { offsetInCU: 0x804A, offset: 0x804A, size: 0x8, addend: 0x0, symName: __ZNSt3__118__constexpr_strlenB7v160006EPKc, symObjAddr: 0x3CD0, symBinAddr: 0x100006F60, symSize: 0x24 }
  - { offsetInCU: 0x8076, offset: 0x8076, size: 0x8, addend: 0x0, symName: __ZNSt3__1eqB7v160006IP10ExamResultEEbRKNS_11__wrap_iterIT_EES7_, symObjAddr: 0x3D88, symBinAddr: 0x100007018, symSize: 0x48 }
  - { offsetInCU: 0x8271, offset: 0x8271, size: 0x8, addend: 0x0, symName: __ZSt28__throw_bad_array_new_lengthB7v160006v, symObjAddr: 0x10B4, symBinAddr: 0x100004344, symSize: 0x34 }
  - { offsetInCU: 0x8779, offset: 0x8779, size: 0x8, addend: 0x0, symName: __ZNSt3__16vectorI10ExamResultNS_9allocatorIS1_EEE26__swap_out_circular_bufferERNS_14__split_bufferIS1_RS3_EE, symObjAddr: 0x2020, symBinAddr: 0x1000052B0, symSize: 0x118 }
  - { offsetInCU: 0xAA4C, offset: 0xAA4C, size: 0x8, addend: 0x0, symName: _main, symObjAddr: 0x0, symBinAddr: 0x100003290, symSize: 0x494 }
  - { offsetInCU: 0xAB83, offset: 0xAB83, size: 0x8, addend: 0x0, symName: __ZNSt3__16vectorI10ExamResultNS_9allocatorIS1_EEEC1B7v160006Ev, symObjAddr: 0x494, symBinAddr: 0x100003724, symSize: 0x2C }
  - { offsetInCU: 0xABB1, offset: 0xABB1, size: 0x8, addend: 0x0, symName: __ZN10ExamResultC1Ev, symObjAddr: 0x4C0, symBinAddr: 0x100003750, symSize: 0x2C }
  - { offsetInCU: 0xABDC, offset: 0xABDC, size: 0x8, addend: 0x0, symName: __ZNSt3__112basic_stringIcNS_11char_traitsIcEENS_9allocatorIcEEEaSB7v160006EPKc, symObjAddr: 0x4EC, symBinAddr: 0x10000377C, symSize: 0x2C }
  - { offsetInCU: 0xAC0F, offset: 0xAC0F, size: 0x8, addend: 0x0, symName: __ZNSt3__16vectorI10ExamResultNS_9allocatorIS1_EEE9push_backB7v160006ERKS1_, symObjAddr: 0x518, symBinAddr: 0x1000037A8, symSize: 0x6C }
  - { offsetInCU: 0xAC45, offset: 0xAC45, size: 0x8, addend: 0x0, symName: __ZNSt3__113basic_ostreamIcNS_11char_traitsIcEEElsB7v160006EPFRS3_S4_E, symObjAddr: 0x5CC, symBinAddr: 0x10000385C, symSize: 0x2C }
  - { offsetInCU: 0xAC77, offset: 0xAC77, size: 0x8, addend: 0x0, symName: __ZNSt3__16vectorI10ExamResultNS_9allocatorIS1_EEE5beginB7v160006Ev, symObjAddr: 0x650, symBinAddr: 0x1000038E0, symSize: 0x30 }
  - { offsetInCU: 0xAC9D, offset: 0xAC9D, size: 0x8, addend: 0x0, symName: __ZNSt3__16vectorI10ExamResultNS_9allocatorIS1_EEE3endB7v160006Ev, symObjAddr: 0x680, symBinAddr: 0x100003910, symSize: 0x30 }
  - { offsetInCU: 0xACC4, offset: 0xACC4, size: 0x8, addend: 0x0, symName: __ZNKSt3__111__wrap_iterIP10ExamResultEdeB7v160006Ev, symObjAddr: 0x6E4, symBinAddr: 0x100003974, symSize: 0x18 }
  - { offsetInCU: 0xADC2, offset: 0xADC2, size: 0x8, addend: 0x0, symName: __ZNSt3__119basic_istringstreamIcNS_11char_traitsIcEENS_9allocatorIcEEEC1B7v160006ERKNS_12basic_stringIcS2_S4_EEj, symObjAddr: 0x6FC, symBinAddr: 0x10000398C, symSize: 0x108 }
  - { offsetInCU: 0xAE0E, offset: 0xAE0E, size: 0x8, addend: 0x0, symName: __ZNSt3__119basic_istringstreamIcNS_11char_traitsIcEENS_9allocatorIcEEED1Ev, symObjAddr: 0x9E0, symBinAddr: 0x100003C70, symSize: 0x70 }
  - { offsetInCU: 0xAE3A, offset: 0xAE3A, size: 0x8, addend: 0x0, symName: __ZNSt3__111__wrap_iterIP10ExamResultEppB7v160006Ev, symObjAddr: 0xA5C, symBinAddr: 0x100003CEC, symSize: 0x20 }
  - { offsetInCU: 0xAE5F, offset: 0xAE5F, size: 0x8, addend: 0x0, symName: __ZN10ExamResultD1Ev, symObjAddr: 0xA7C, symBinAddr: 0x100003D0C, symSize: 0x2C }
  - { offsetInCU: 0xAE8A, offset: 0xAE8A, size: 0x8, addend: 0x0, symName: __ZNSt3__16vectorI10ExamResultNS_9allocatorIS1_EEED1B7v160006Ev, symObjAddr: 0xAA8, symBinAddr: 0x100003D38, symSize: 0x2C }
  - { offsetInCU: 0xAEB3, offset: 0xAEB3, size: 0x8, addend: 0x0, symName: __ZN10ExamResultC2Ev, symObjAddr: 0xAD4, symBinAddr: 0x100003D64, symSize: 0xD0 }
  - { offsetInCU: 0xAEDE, offset: 0xAEDE, size: 0x8, addend: 0x0, symName: __ZNSt3__112basic_stringIcNS_11char_traitsIcEENS_9allocatorIcEEEC1B7v160006Ev, symObjAddr: 0xBA4, symBinAddr: 0x100003E34, symSize: 0x2C }
  - { offsetInCU: 0xAF07, offset: 0xAF07, size: 0x8, addend: 0x0, symName: __ZNSt3__112basic_stringIcNS_11char_traitsIcEENS_9allocatorIcEEEC2B7v160006Ev, symObjAddr: 0xBD0, symBinAddr: 0x100003E60, symSize: 0x44 }
  - { offsetInCU: 0xAF35, offset: 0xAF35, size: 0x8, addend: 0x0, symName: __ZNSt3__117__compressed_pairINS_12basic_stringIcNS_11char_traitsIcEENS_9allocatorIcEEE5__repES5_EC1B7v160006INS_18__default_init_tagESA_EEOT_OT0_, symObjAddr: 0xC14, symBinAddr: 0x100003EA4, symSize: 0x3C }
  - { offsetInCU: 0xAF8C, offset: 0xAF8C, size: 0x8, addend: 0x0, symName: __ZNSt3__112basic_stringIcNS_11char_traitsIcEENS_9allocatorIcEEE14__default_initB7v160006Ev, symObjAddr: 0xC60, symBinAddr: 0x100003EF0, symSize: 0xB0 }
  - { offsetInCU: 0xAFDE, offset: 0xAFDE, size: 0x8, addend: 0x0, symName: __ZNSt3__117__compressed_pairINS_12basic_stringIcNS_11char_traitsIcEENS_9allocatorIcEEE5__repES5_EC2B7v160006INS_18__default_init_tagESA_EEOT_OT0_, symObjAddr: 0xD10, symBinAddr: 0x100003FA0, symSize: 0x3C }
  - { offsetInCU: 0xB035, offset: 0xB035, size: 0x8, addend: 0x0, symName: __ZNSt3__122__compressed_pair_elemINS_12basic_stringIcNS_11char_traitsIcEENS_9allocatorIcEEE5__repELi0ELb0EEC2B7v160006ENS_18__default_init_tagE, symObjAddr: 0xD4C, symBinAddr: 0x100003FDC, symSize: 0x14 }
  - { offsetInCU: 0xB069, offset: 0xB069, size: 0x8, addend: 0x0, symName: __ZNSt3__122__compressed_pair_elemINS_9allocatorIcEELi1ELb1EEC2B7v160006ENS_18__default_init_tagE, symObjAddr: 0xD60, symBinAddr: 0x100003FF0, symSize: 0x2C }
  - { offsetInCU: 0xB09D, offset: 0xB09D, size: 0x8, addend: 0x0, symName: __ZNSt3__19allocatorIcEC2B7v160006Ev, symObjAddr: 0xD8C, symBinAddr: 0x10000401C, symSize: 0x2C }
  - { offsetInCU: 0xB0C6, offset: 0xB0C6, size: 0x8, addend: 0x0, symName: __ZNSt3__116__non_trivial_ifILb1ENS_9allocatorIcEEEC2B7v160006Ev, symObjAddr: 0xDB8, symBinAddr: 0x100004048, symSize: 0x14 }
  - { offsetInCU: 0xB0EF, offset: 0xB0EF, size: 0x8, addend: 0x0, symName: __ZNSt3__117__compressed_pairINS_12basic_stringIcNS_11char_traitsIcEENS_9allocatorIcEEE5__repES5_E5firstB7v160006Ev, symObjAddr: 0xDCC, symBinAddr: 0x10000405C, symSize: 0x24 }
  - { offsetInCU: 0xB114, offset: 0xB114, size: 0x8, addend: 0x0, symName: __ZNSt3__112basic_stringIcNS_11char_traitsIcEENS_9allocatorIcEEE11__recommendB7v160006Em, symObjAddr: 0xDFC, symBinAddr: 0x10000408C, symSize: 0x9C }
  - { offsetInCU: 0xB147, offset: 0xB147, size: 0x8, addend: 0x0, symName: __ZNSt3__116allocator_traitsINS_9allocatorIcEEE8allocateB7v160006ERS2_m, symObjAddr: 0xE98, symBinAddr: 0x100004128, symSize: 0x2C }
  - { offsetInCU: 0xB17A, offset: 0xB17A, size: 0x8, addend: 0x0, symName: __ZNSt3__112basic_stringIcNS_11char_traitsIcEENS_9allocatorIcEEE7__allocB7v160006Ev, symObjAddr: 0xEC4, symBinAddr: 0x100004154, symSize: 0x24 }
  - { offsetInCU: 0xB19F, offset: 0xB19F, size: 0x8, addend: 0x0, symName: __ZNSt3__112basic_stringIcNS_11char_traitsIcEENS_9allocatorIcEEE16__begin_lifetimeB7v160006EPcm, symObjAddr: 0xEE8, symBinAddr: 0x100004178, symSize: 0x14 }
  - { offsetInCU: 0xB1D2, offset: 0xB1D2, size: 0x8, addend: 0x0, symName: __ZNSt3__112basic_stringIcNS_11char_traitsIcEENS_9allocatorIcEEE18__set_long_pointerB7v160006EPc, symObjAddr: 0xEFC, symBinAddr: 0x10000418C, symSize: 0x38 }
  - { offsetInCU: 0xB206, offset: 0xB206, size: 0x8, addend: 0x0, symName: __ZNSt3__112basic_stringIcNS_11char_traitsIcEENS_9allocatorIcEEE14__set_long_capB7v160006Em, symObjAddr: 0xF34, symBinAddr: 0x1000041C4, symSize: 0x70 }
  - { offsetInCU: 0xB23A, offset: 0xB23A, size: 0x8, addend: 0x0, symName: __ZNSt3__112basic_stringIcNS_11char_traitsIcEENS_9allocatorIcEEE15__set_long_sizeB7v160006Em, symObjAddr: 0xFA4, symBinAddr: 0x100004234, symSize: 0x38 }
  - { offsetInCU: 0xB26E, offset: 0xB26E, size: 0x8, addend: 0x0, symName: __ZNSt3__122__compressed_pair_elemINS_12basic_stringIcNS_11char_traitsIcEENS_9allocatorIcEEE5__repELi0ELb0EE5__getB7v160006Ev, symObjAddr: 0xFDC, symBinAddr: 0x10000426C, symSize: 0x14 }
  - { offsetInCU: 0xB293, offset: 0xB293, size: 0x8, addend: 0x0, symName: __ZNSt3__112basic_stringIcNS_11char_traitsIcEENS_9allocatorIcEEE10__align_itB7v160006ILm16EEEmm, symObjAddr: 0xFF0, symBinAddr: 0x100004280, symSize: 0x1C }
  - { offsetInCU: 0xB2C1, offset: 0xB2C1, size: 0x8, addend: 0x0, symName: __ZNSt3__19allocatorIcE8allocateB7v160006Em, symObjAddr: 0x100C, symBinAddr: 0x10000429C, symSize: 0x84 }
  - { offsetInCU: 0xB2FE, offset: 0xB2FE, size: 0x8, addend: 0x0, symName: __ZNSt3__116allocator_traitsINS_9allocatorIcEEE8max_sizeB7v160006IS2_vEEmRKS2_, symObjAddr: 0x1090, symBinAddr: 0x100004320, symSize: 0x24 }
  - { offsetInCU: 0xB32C, offset: 0xB32C, size: 0x8, addend: 0x0, symName: __ZNKSt3__19allocatorIcE8max_sizeB7v160006Ev, symObjAddr: 0x1110, symBinAddr: 0x1000043A0, symSize: 0x14 }
  - { offsetInCU: 0xB351, offset: 0xB351, size: 0x8, addend: 0x0, symName: __ZNSt3__117__compressed_pairINS_12basic_stringIcNS_11char_traitsIcEENS_9allocatorIcEEE5__repES5_E6secondB7v160006Ev, symObjAddr: 0x1148, symBinAddr: 0x1000043D8, symSize: 0x24 }
  - { offsetInCU: 0xB376, offset: 0xB376, size: 0x8, addend: 0x0, symName: __ZNSt3__122__compressed_pair_elemINS_9allocatorIcEELi1ELb1EE5__getB7v160006Ev, symObjAddr: 0x116C, symBinAddr: 0x1000043FC, symSize: 0x14 }
  - { offsetInCU: 0xB39B, offset: 0xB39B, size: 0x8, addend: 0x0, symName: __ZNSt3__119basic_istringstreamIcNS_11char_traitsIcEENS_9allocatorIcEEED2Ev, symObjAddr: 0x1180, symBinAddr: 0x100004410, symSize: 0x9C }
  - { offsetInCU: 0xB3D3, offset: 0xB3D3, size: 0x8, addend: 0x0, symName: __ZTv0_n24_NSt3__119basic_istringstreamIcNS_11char_traitsIcEENS_9allocatorIcEEED1Ev, symObjAddr: 0x121C, symBinAddr: 0x1000044AC, symSize: 0x28 }
  - { offsetInCU: 0xB3EF, offset: 0xB3EF, size: 0x8, addend: 0x0, symName: __ZNSt3__115basic_stringbufIcNS_11char_traitsIcEENS_9allocatorIcEEED1Ev, symObjAddr: 0x1244, symBinAddr: 0x1000044D4, symSize: 0x2C }
  - { offsetInCU: 0xB41B, offset: 0xB41B, size: 0x8, addend: 0x0, symName: __ZNSt3__115basic_stringbufIcNS_11char_traitsIcEENS_9allocatorIcEEED2Ev, symObjAddr: 0x1270, symBinAddr: 0x100004500, symSize: 0x78 }
  - { offsetInCU: 0xB447, offset: 0xB447, size: 0x8, addend: 0x0, symName: __ZN10ExamResultD2Ev, symObjAddr: 0x12E8, symBinAddr: 0x100004578, symSize: 0xCC }
  - { offsetInCU: 0xB472, offset: 0xB472, size: 0x8, addend: 0x0, symName: __ZNSt3__16vectorI10ExamResultNS_9allocatorIS1_EEEC2B7v160006Ev, symObjAddr: 0x13B4, symBinAddr: 0x100004644, symSize: 0x4C }
  - { offsetInCU: 0xB4A0, offset: 0xB4A0, size: 0x8, addend: 0x0, symName: __ZNSt3__117__compressed_pairIP10ExamResultNS_9allocatorIS1_EEEC1B7v160006IDnNS_18__default_init_tagEEEOT_OT0_, symObjAddr: 0x1400, symBinAddr: 0x100004690, symSize: 0x3C }
  - { offsetInCU: 0xB4F7, offset: 0xB4F7, size: 0x8, addend: 0x0, symName: __ZNSt3__117__compressed_pairIP10ExamResultNS_9allocatorIS1_EEEC2B7v160006IDnNS_18__default_init_tagEEEOT_OT0_, symObjAddr: 0x144C, symBinAddr: 0x1000046DC, symSize: 0x40 }
  - { offsetInCU: 0xB54E, offset: 0xB54E, size: 0x8, addend: 0x0, symName: __ZNSt3__122__compressed_pair_elemIP10ExamResultLi0ELb0EEC2B7v160006IDnvEEOT_, symObjAddr: 0x148C, symBinAddr: 0x10000471C, symSize: 0x1C }
  - { offsetInCU: 0xB58F, offset: 0xB58F, size: 0x8, addend: 0x0, symName: __ZNSt3__122__compressed_pair_elemINS_9allocatorI10ExamResultEELi1ELb1EEC2B7v160006ENS_18__default_init_tagE, symObjAddr: 0x14A8, symBinAddr: 0x100004738, symSize: 0x2C }
  - { offsetInCU: 0xB5C3, offset: 0xB5C3, size: 0x8, addend: 0x0, symName: __ZNSt3__19allocatorI10ExamResultEC2B7v160006Ev, symObjAddr: 0x14D4, symBinAddr: 0x100004764, symSize: 0x2C }
  - { offsetInCU: 0xB5EC, offset: 0xB5EC, size: 0x8, addend: 0x0, symName: __ZNSt3__116__non_trivial_ifILb1ENS_9allocatorI10ExamResultEEEC2B7v160006Ev, symObjAddr: 0x1500, symBinAddr: 0x100004790, symSize: 0x14 }
  - { offsetInCU: 0xB615, offset: 0xB615, size: 0x8, addend: 0x0, symName: __ZNSt3__16vectorI10ExamResultNS_9allocatorIS1_EEED2B7v160006Ev, symObjAddr: 0x1514, symBinAddr: 0x1000047A4, symSize: 0x3C }
  - { offsetInCU: 0xB63E, offset: 0xB63E, size: 0x8, addend: 0x0, symName: __ZNSt3__16vectorI10ExamResultNS_9allocatorIS1_EEE16__destroy_vectorC1ERS4_, symObjAddr: 0x1550, symBinAddr: 0x1000047E0, symSize: 0x34 }
  - { offsetInCU: 0xB676, offset: 0xB676, size: 0x8, addend: 0x0, symName: __ZNSt3__16vectorI10ExamResultNS_9allocatorIS1_EEE16__destroy_vectorclB7v160006Ev, symObjAddr: 0x1584, symBinAddr: 0x100004814, symSize: 0x9C }
  - { offsetInCU: 0xB69B, offset: 0xB69B, size: 0x8, addend: 0x0, symName: __ZNSt3__16vectorI10ExamResultNS_9allocatorIS1_EEE16__destroy_vectorC2ERS4_, symObjAddr: 0x1620, symBinAddr: 0x1000048B0, symSize: 0x20 }
  - { offsetInCU: 0xB6D3, offset: 0xB6D3, size: 0x8, addend: 0x0, symName: __ZNKSt3__16vectorI10ExamResultNS_9allocatorIS1_EEE17__annotate_deleteB7v160006Ev, symObjAddr: 0x1640, symBinAddr: 0x1000048D0, symSize: 0xD4 }
  - { offsetInCU: 0xB6F8, offset: 0xB6F8, size: 0x8, addend: 0x0, symName: __ZNSt3__16vectorI10ExamResultNS_9allocatorIS1_EEE7__clearB7v160006Ev, symObjAddr: 0x1724, symBinAddr: 0x1000049B4, symSize: 0x28 }
  - { offsetInCU: 0xB71D, offset: 0xB71D, size: 0x8, addend: 0x0, symName: __ZNSt3__116allocator_traitsINS_9allocatorI10ExamResultEEE10deallocateB7v160006ERS3_PS2_m, symObjAddr: 0x174C, symBinAddr: 0x1000049DC, symSize: 0x34 }
  - { offsetInCU: 0xB75F, offset: 0xB75F, size: 0x8, addend: 0x0, symName: __ZNSt3__16vectorI10ExamResultNS_9allocatorIS1_EEE7__allocB7v160006Ev, symObjAddr: 0x1780, symBinAddr: 0x100004A10, symSize: 0x28 }
  - { offsetInCU: 0xB784, offset: 0xB784, size: 0x8, addend: 0x0, symName: __ZNKSt3__16vectorI10ExamResultNS_9allocatorIS1_EEE8capacityB7v160006Ev, symObjAddr: 0x17A8, symBinAddr: 0x100004A38, symSize: 0x40 }
  - { offsetInCU: 0xB7A9, offset: 0xB7A9, size: 0x8, addend: 0x0, symName: __ZNKSt3__16vectorI10ExamResultNS_9allocatorIS1_EEE31__annotate_contiguous_containerB7v160006EPKvS6_S6_S6_, symObjAddr: 0x17E8, symBinAddr: 0x100004A78, symSize: 0x20 }
  - { offsetInCU: 0xB7FE, offset: 0xB7FE, size: 0x8, addend: 0x0, symName: __ZNKSt3__16vectorI10ExamResultNS_9allocatorIS1_EEE4dataB7v160006Ev, symObjAddr: 0x1808, symBinAddr: 0x100004A98, symSize: 0x28 }
  - { offsetInCU: 0xB823, offset: 0xB823, size: 0x8, addend: 0x0, symName: __ZNKSt3__16vectorI10ExamResultNS_9allocatorIS1_EEE4sizeB7v160006Ev, symObjAddr: 0x1830, symBinAddr: 0x100004AC0, symSize: 0x28 }
  - { offsetInCU: 0xB848, offset: 0xB848, size: 0x8, addend: 0x0, symName: __ZNSt3__16vectorI10ExamResultNS_9allocatorIS1_EEE22__base_destruct_at_endB7v160006EPS1_, symObjAddr: 0x186C, symBinAddr: 0x100004AFC, symSize: 0xA0 }
  - { offsetInCU: 0xB88B, offset: 0xB88B, size: 0x8, addend: 0x0, symName: __ZNSt3__116allocator_traitsINS_9allocatorI10ExamResultEEE7destroyB7v160006IS2_vEEvRS3_PT_, symObjAddr: 0x190C, symBinAddr: 0x100004B9C, symSize: 0x2C }
  - { offsetInCU: 0xB8C8, offset: 0xB8C8, size: 0x8, addend: 0x0, symName: __ZNSt3__19allocatorI10ExamResultE7destroyB7v160006EPS1_, symObjAddr: 0x1938, symBinAddr: 0x100004BC8, symSize: 0x28 }
  - { offsetInCU: 0xB8FB, offset: 0xB8FB, size: 0x8, addend: 0x0, symName: __ZNSt3__19allocatorI10ExamResultE10deallocateB7v160006EPS1_m, symObjAddr: 0x1960, symBinAddr: 0x100004BF0, symSize: 0x74 }
  - { offsetInCU: 0xB93C, offset: 0xB93C, size: 0x8, addend: 0x0, symName: __ZNSt3__117__compressed_pairIP10ExamResultNS_9allocatorIS1_EEE6secondB7v160006Ev, symObjAddr: 0x1A50, symBinAddr: 0x100004CE0, symSize: 0x24 }
  - { offsetInCU: 0xB961, offset: 0xB961, size: 0x8, addend: 0x0, symName: __ZNSt3__122__compressed_pair_elemINS_9allocatorI10ExamResultEELi1ELb1EE5__getB7v160006Ev, symObjAddr: 0x1A74, symBinAddr: 0x100004D04, symSize: 0x14 }
  - { offsetInCU: 0xB986, offset: 0xB986, size: 0x8, addend: 0x0, symName: __ZNKSt3__16vectorI10ExamResultNS_9allocatorIS1_EEE9__end_capB7v160006Ev, symObjAddr: 0x1A88, symBinAddr: 0x100004D18, symSize: 0x28 }
  - { offsetInCU: 0xB9AB, offset: 0xB9AB, size: 0x8, addend: 0x0, symName: __ZNKSt3__117__compressed_pairIP10ExamResultNS_9allocatorIS1_EEE5firstB7v160006Ev, symObjAddr: 0x1AB0, symBinAddr: 0x100004D40, symSize: 0x24 }
  - { offsetInCU: 0xB9D0, offset: 0xB9D0, size: 0x8, addend: 0x0, symName: __ZNKSt3__122__compressed_pair_elemIP10ExamResultLi0ELb0EE5__getB7v160006Ev, symObjAddr: 0x1AD4, symBinAddr: 0x100004D64, symSize: 0x14 }
  - { offsetInCU: 0xB9F5, offset: 0xB9F5, size: 0x8, addend: 0x0, symName: __ZNSt3__16vectorI10ExamResultNS_9allocatorIS1_EEE9__end_capB7v160006Ev, symObjAddr: 0x1AE8, symBinAddr: 0x100004D78, symSize: 0x28 }
  - { offsetInCU: 0xBA1A, offset: 0xBA1A, size: 0x8, addend: 0x0, symName: __ZNSt3__16vectorI10ExamResultNS_9allocatorIS1_EEE22__construct_one_at_endB7v160006IJRKS1_EEEvDpOT_, symObjAddr: 0x1B10, symBinAddr: 0x100004DA0, symSize: 0x98 }
  - { offsetInCU: 0xBA67, offset: 0xBA67, size: 0x8, addend: 0x0, symName: __ZNSt3__16vectorI10ExamResultNS_9allocatorIS1_EEE21__push_back_slow_pathIRKS1_EEvOT_, symObjAddr: 0x1BA8, symBinAddr: 0x100004E38, symSize: 0xE0 }
  - { offsetInCU: 0xBAC4, offset: 0xBAC4, size: 0x8, addend: 0x0, symName: __ZNSt3__117__compressed_pairIP10ExamResultNS_9allocatorIS1_EEE5firstB7v160006Ev, symObjAddr: 0x1C88, symBinAddr: 0x100004F18, symSize: 0x24 }
  - { offsetInCU: 0xBAE9, offset: 0xBAE9, size: 0x8, addend: 0x0, symName: __ZNSt3__122__compressed_pair_elemIP10ExamResultLi0ELb0EE5__getB7v160006Ev, symObjAddr: 0x1CAC, symBinAddr: 0x100004F3C, symSize: 0x14 }
  - { offsetInCU: 0xBB27, offset: 0xBB27, size: 0x8, addend: 0x0, symName: __ZNSt3__16vectorI10ExamResultNS_9allocatorIS1_EEE21_ConstructTransactionC1B7v160006ERS4_m, symObjAddr: 0x1CC0, symBinAddr: 0x100004F50, symSize: 0x3C }
  - { offsetInCU: 0xBB6E, offset: 0xBB6E, size: 0x8, addend: 0x0, symName: __ZNSt3__116allocator_traitsINS_9allocatorI10ExamResultEEE9constructB7v160006IS2_JRKS2_EvEEvRS3_PT_DpOT0_, symObjAddr: 0x1CFC, symBinAddr: 0x100004F8C, symSize: 0x34 }
  - { offsetInCU: 0xBBC5, offset: 0xBBC5, size: 0x8, addend: 0x0, symName: __ZNSt3__16vectorI10ExamResultNS_9allocatorIS1_EEE21_ConstructTransactionD1B7v160006Ev, symObjAddr: 0x1D30, symBinAddr: 0x100004FC0, symSize: 0x2C }
  - { offsetInCU: 0xBBEE, offset: 0xBBEE, size: 0x8, addend: 0x0, symName: __ZNSt3__16vectorI10ExamResultNS_9allocatorIS1_EEE21_ConstructTransactionC2B7v160006ERS4_m, symObjAddr: 0x1D5C, symBinAddr: 0x100004FEC, symSize: 0x4C }
  - { offsetInCU: 0xBC35, offset: 0xBC35, size: 0x8, addend: 0x0, symName: __ZNSt3__19allocatorI10ExamResultE9constructB7v160006IS1_JRKS1_EEEvPT_DpOT0_, symObjAddr: 0x1DA8, symBinAddr: 0x100005038, symSize: 0x30 }
  - { offsetInCU: 0xBC8A, offset: 0xBC8A, size: 0x8, addend: 0x0, symName: __ZN10ExamResultC1ERKS_, symObjAddr: 0x1DD8, symBinAddr: 0x100005068, symSize: 0x34 }
  - { offsetInCU: 0xBCBE, offset: 0xBCBE, size: 0x8, addend: 0x0, symName: __ZN10ExamResultC2ERKS_, symObjAddr: 0x1E0C, symBinAddr: 0x10000509C, symSize: 0xFC }
  - { offsetInCU: 0xBCF2, offset: 0xBCF2, size: 0x8, addend: 0x0, symName: __ZNSt3__16vectorI10ExamResultNS_9allocatorIS1_EEE21_ConstructTransactionD2B7v160006Ev, symObjAddr: 0x1F08, symBinAddr: 0x100005198, symSize: 0x20 }
  - { offsetInCU: 0xBD1A, offset: 0xBD1A, size: 0x8, addend: 0x0, symName: __ZNKSt3__16vectorI10ExamResultNS_9allocatorIS1_EEE11__recommendB7v160006Em, symObjAddr: 0x1F28, symBinAddr: 0x1000051B8, symSize: 0xB4 }
  - { offsetInCU: 0xBD6E, offset: 0xBD6E, size: 0x8, addend: 0x0, symName: __ZNSt3__114__split_bufferI10ExamResultRNS_9allocatorIS1_EEEC1EmmS4_, symObjAddr: 0x1FDC, symBinAddr: 0x10000526C, symSize: 0x44 }
  - { offsetInCU: 0xBDC3, offset: 0xBDC3, size: 0x8, addend: 0x0, symName: __ZNSt3__114__split_bufferI10ExamResultRNS_9allocatorIS1_EEED1Ev, symObjAddr: 0x2138, symBinAddr: 0x1000053C8, symSize: 0x2C }
  - { offsetInCU: 0xBDED, offset: 0xBDED, size: 0x8, addend: 0x0, symName: __ZNKSt3__16vectorI10ExamResultNS_9allocatorIS1_EEE8max_sizeEv, symObjAddr: 0x2164, symBinAddr: 0x1000053F4, symSize: 0x74 }
  - { offsetInCU: 0xBE14, offset: 0xBE14, size: 0x8, addend: 0x0, symName: __ZNKSt3__16vectorI10ExamResultNS_9allocatorIS1_EEE20__throw_length_errorB7v160006Ev, symObjAddr: 0x21D8, symBinAddr: 0x100005468, symSize: 0x1C }
  - { offsetInCU: 0xBE43, offset: 0xBE43, size: 0x8, addend: 0x0, symName: __ZNSt3__116allocator_traitsINS_9allocatorI10ExamResultEEE8max_sizeB7v160006IS3_vEEmRKS3_, symObjAddr: 0x224C, symBinAddr: 0x1000054DC, symSize: 0x24 }
  - { offsetInCU: 0xBE71, offset: 0xBE71, size: 0x8, addend: 0x0, symName: __ZNKSt3__16vectorI10ExamResultNS_9allocatorIS1_EEE7__allocB7v160006Ev, symObjAddr: 0x2270, symBinAddr: 0x100005500, symSize: 0x28 }
  - { offsetInCU: 0xBE96, offset: 0xBE96, size: 0x8, addend: 0x0, symName: __ZNSt3__114numeric_limitsIlE3maxB7v160006Ev, symObjAddr: 0x2298, symBinAddr: 0x100005528, symSize: 0x14 }
  - { offsetInCU: 0xBEBE, offset: 0xBEBE, size: 0x8, addend: 0x0, symName: __ZNKSt3__16__lessImmEclB7v160006ERKmS3_, symObjAddr: 0x2300, symBinAddr: 0x100005590, symSize: 0x34 }
  - { offsetInCU: 0xBEFF, offset: 0xBEFF, size: 0x8, addend: 0x0, symName: __ZNKSt3__19allocatorI10ExamResultE8max_sizeB7v160006Ev, symObjAddr: 0x2334, symBinAddr: 0x1000055C4, symSize: 0x20 }
  - { offsetInCU: 0xBF24, offset: 0xBF24, size: 0x8, addend: 0x0, symName: __ZNKSt3__117__compressed_pairIP10ExamResultNS_9allocatorIS1_EEE6secondB7v160006Ev, symObjAddr: 0x2354, symBinAddr: 0x1000055E4, symSize: 0x24 }
  - { offsetInCU: 0xBF49, offset: 0xBF49, size: 0x8, addend: 0x0, symName: __ZNKSt3__122__compressed_pair_elemINS_9allocatorI10ExamResultEELi1ELb1EE5__getB7v160006Ev, symObjAddr: 0x2378, symBinAddr: 0x100005608, symSize: 0x14 }
  - { offsetInCU: 0xBF6E, offset: 0xBF6E, size: 0x8, addend: 0x0, symName: __ZNSt3__123__libcpp_numeric_limitsIlLb1EE3maxB7v160006Ev, symObjAddr: 0x238C, symBinAddr: 0x10000561C, symSize: 0x8 }
  - { offsetInCU: 0xBF82, offset: 0xBF82, size: 0x8, addend: 0x0, symName: __ZNSt12length_errorC1B7v160006EPKc, symObjAddr: 0x23F8, symBinAddr: 0x100005688, symSize: 0x34 }
  - { offsetInCU: 0xBFB9, offset: 0xBFB9, size: 0x8, addend: 0x0, symName: __ZNSt12length_errorC2B7v160006EPKc, symObjAddr: 0x242C, symBinAddr: 0x1000056BC, symSize: 0x4C }
  - { offsetInCU: 0xBFF0, offset: 0xBFF0, size: 0x8, addend: 0x0, symName: __ZNSt3__114__split_bufferI10ExamResultRNS_9allocatorIS1_EEEC2EmmS4_, symObjAddr: 0x24CC, symBinAddr: 0x10000575C, symSize: 0xE0 }
  - { offsetInCU: 0xC063, offset: 0xC063, size: 0x8, addend: 0x0, symName: __ZNSt3__117__compressed_pairIP10ExamResultRNS_9allocatorIS1_EEEC1B7v160006IDnS5_EEOT_OT0_, symObjAddr: 0x25AC, symBinAddr: 0x10000583C, symSize: 0x3C }
  - { offsetInCU: 0xC0BA, offset: 0xC0BA, size: 0x8, addend: 0x0, symName: __ZNSt3__114__split_bufferI10ExamResultRNS_9allocatorIS1_EEE7__allocB7v160006Ev, symObjAddr: 0x2628, symBinAddr: 0x1000058B8, symSize: 0x28 }
  - { offsetInCU: 0xC0DF, offset: 0xC0DF, size: 0x8, addend: 0x0, symName: __ZNSt3__114__split_bufferI10ExamResultRNS_9allocatorIS1_EEE9__end_capB7v160006Ev, symObjAddr: 0x2650, symBinAddr: 0x1000058E0, symSize: 0x28 }
  - { offsetInCU: 0xC104, offset: 0xC104, size: 0x8, addend: 0x0, symName: __ZNSt3__117__compressed_pairIP10ExamResultRNS_9allocatorIS1_EEEC2B7v160006IDnS5_EEOT_OT0_, symObjAddr: 0x2678, symBinAddr: 0x100005908, symSize: 0x48 }
  - { offsetInCU: 0xC15B, offset: 0xC15B, size: 0x8, addend: 0x0, symName: __ZNSt3__122__compressed_pair_elemIRNS_9allocatorI10ExamResultEELi1ELb0EEC2B7v160006IS4_vEEOT_, symObjAddr: 0x26C0, symBinAddr: 0x100005950, symSize: 0x20 }
  - { offsetInCU: 0xC19C, offset: 0xC19C, size: 0x8, addend: 0x0, symName: __ZNSt3__19allocatorI10ExamResultE8allocateB7v160006Em, symObjAddr: 0x26E0, symBinAddr: 0x100005970, symSize: 0x8C }
  - { offsetInCU: 0xC1CF, offset: 0xC1CF, size: 0x8, addend: 0x0, symName: __ZNSt3__117__compressed_pairIP10ExamResultRNS_9allocatorIS1_EEE6secondB7v160006Ev, symObjAddr: 0x276C, symBinAddr: 0x1000059FC, symSize: 0x28 }
  - { offsetInCU: 0xC1F4, offset: 0xC1F4, size: 0x8, addend: 0x0, symName: __ZNSt3__122__compressed_pair_elemIRNS_9allocatorI10ExamResultEELi1ELb0EE5__getB7v160006Ev, symObjAddr: 0x2794, symBinAddr: 0x100005A24, symSize: 0x18 }
  - { offsetInCU: 0xC219, offset: 0xC219, size: 0x8, addend: 0x0, symName: __ZNSt3__117__compressed_pairIP10ExamResultRNS_9allocatorIS1_EEE5firstB7v160006Ev, symObjAddr: 0x27AC, symBinAddr: 0x100005A3C, symSize: 0x24 }
  - { offsetInCU: 0xC23E, offset: 0xC23E, size: 0x8, addend: 0x0, symName: __ZNSt3__116reverse_iteratorIP10ExamResultEC1B7v160006ES2_, symObjAddr: 0x2904, symBinAddr: 0x100005B94, symSize: 0x34 }
  - { offsetInCU: 0xC275, offset: 0xC275, size: 0x8, addend: 0x0, symName: __ZNKSt3__116reverse_iteratorIP10ExamResultE4baseB7v160006Ev, symObjAddr: 0x2938, symBinAddr: 0x100005BC8, symSize: 0x18 }
  - { offsetInCU: 0xC29A, offset: 0xC29A, size: 0x8, addend: 0x0, symName: __ZNKSt3__16vectorI10ExamResultNS_9allocatorIS1_EEE14__annotate_newB7v160006Em, symObjAddr: 0x298C, symBinAddr: 0x100005C1C, symSize: 0xC8 }
  - { offsetInCU: 0xC2CE, offset: 0xC2CE, size: 0x8, addend: 0x0, symName: __ZNSt3__129_AllocatorDestroyRangeReverseINS_9allocatorI10ExamResultEENS_16reverse_iteratorIPS2_EEEC1B7v160006ERS3_RS6_S9_, symObjAddr: 0x2AB0, symBinAddr: 0x100005D40, symSize: 0x44 }
  - { offsetInCU: 0xC324, offset: 0xC324, size: 0x8, addend: 0x0, symName: __ZNKSt3__116reverse_iteratorIP10ExamResultEdeB7v160006Ev, symObjAddr: 0x2B60, symBinAddr: 0x100005DF0, symSize: 0x28 }
  - { offsetInCU: 0xC357, offset: 0xC357, size: 0x8, addend: 0x0, symName: __ZNSt3__116reverse_iteratorIP10ExamResultEppB7v160006Ev, symObjAddr: 0x2B88, symBinAddr: 0x100005E18, symSize: 0x20 }
  - { offsetInCU: 0xC37C, offset: 0xC37C, size: 0x8, addend: 0x0, symName: __ZNSt3__128__exception_guard_exceptionsINS_29_AllocatorDestroyRangeReverseINS_9allocatorI10ExamResultEENS_16reverse_iteratorIPS3_EEEEE10__completeB7v160006Ev, symObjAddr: 0x2BA8, symBinAddr: 0x100005E38, symSize: 0x1C }
  - { offsetInCU: 0xC3A1, offset: 0xC3A1, size: 0x8, addend: 0x0, symName: __ZNSt3__128__exception_guard_exceptionsINS_29_AllocatorDestroyRangeReverseINS_9allocatorI10ExamResultEENS_16reverse_iteratorIPS3_EEEEED1B7v160006Ev, symObjAddr: 0x2BC4, symBinAddr: 0x100005E54, symSize: 0x2C }
  - { offsetInCU: 0xC3CA, offset: 0xC3CA, size: 0x8, addend: 0x0, symName: __ZNSt3__128__exception_guard_exceptionsINS_29_AllocatorDestroyRangeReverseINS_9allocatorI10ExamResultEENS_16reverse_iteratorIPS3_EEEEEC1B7v160006ES8_, symObjAddr: 0x2BF0, symBinAddr: 0x100005E80, symSize: 0x34 }
  - { offsetInCU: 0xC402, offset: 0xC402, size: 0x8, addend: 0x0, symName: __ZNSt3__128__exception_guard_exceptionsINS_29_AllocatorDestroyRangeReverseINS_9allocatorI10ExamResultEENS_16reverse_iteratorIPS3_EEEEEC2B7v160006ES8_, symObjAddr: 0x2C24, symBinAddr: 0x100005EB4, symSize: 0x30 }
  - { offsetInCU: 0xC43A, offset: 0xC43A, size: 0x8, addend: 0x0, symName: __ZNSt3__129_AllocatorDestroyRangeReverseINS_9allocatorI10ExamResultEENS_16reverse_iteratorIPS2_EEEC2B7v160006ERS3_RS6_S9_, symObjAddr: 0x2C54, symBinAddr: 0x100005EE4, symSize: 0x38 }
  - { offsetInCU: 0xC495, offset: 0xC495, size: 0x8, addend: 0x0, symName: __ZNSt3__119__to_address_helperINS_16reverse_iteratorIP10ExamResultEEvE6__callB7v160006ERKS4_, symObjAddr: 0x2C8C, symBinAddr: 0x100005F1C, symSize: 0x4C }
  - { offsetInCU: 0xC4B8, offset: 0xC4B8, size: 0x8, addend: 0x0, symName: __ZNKSt3__116reverse_iteratorIP10ExamResultEptB7v160006Ev, symObjAddr: 0x2CD8, symBinAddr: 0x100005F68, symSize: 0x24 }
  - { offsetInCU: 0xC4DD, offset: 0xC4DD, size: 0x8, addend: 0x0, symName: __ZNSt3__128__exception_guard_exceptionsINS_29_AllocatorDestroyRangeReverseINS_9allocatorI10ExamResultEENS_16reverse_iteratorIPS3_EEEEED2B7v160006Ev, symObjAddr: 0x2CFC, symBinAddr: 0x100005F8C, symSize: 0x48 }
  - { offsetInCU: 0xC506, offset: 0xC506, size: 0x8, addend: 0x0, symName: __ZNKSt3__129_AllocatorDestroyRangeReverseINS_9allocatorI10ExamResultEENS_16reverse_iteratorIPS2_EEEclB7v160006Ev, symObjAddr: 0x2D44, symBinAddr: 0x100005FD4, symSize: 0xB4 }
  - { offsetInCU: 0xC52C, offset: 0xC52C, size: 0x8, addend: 0x0, symName: __ZNSt3__116reverse_iteratorINS0_IP10ExamResultEEEC1B7v160006ES3_, symObjAddr: 0x2E68, symBinAddr: 0x1000060F8, symSize: 0x3C }
  - { offsetInCU: 0xC563, offset: 0xC563, size: 0x8, addend: 0x0, symName: __ZNSt3__116reverse_iteratorINS0_IP10ExamResultEEEppB7v160006Ev, symObjAddr: 0x2F28, symBinAddr: 0x1000061B8, symSize: 0x30 }
  - { offsetInCU: 0xC588, offset: 0xC588, size: 0x8, addend: 0x0, symName: __ZNKSt3__116reverse_iteratorINS0_IP10ExamResultEEE4baseB7v160006Ev, symObjAddr: 0x2F58, symBinAddr: 0x1000061E8, symSize: 0x24 }
  - { offsetInCU: 0xC5B2, offset: 0xC5B2, size: 0x8, addend: 0x0, symName: __ZNSt3__119__to_address_helperINS_16reverse_iteratorINS1_IP10ExamResultEEEEvE6__callB7v160006ERKS5_, symObjAddr: 0x2F7C, symBinAddr: 0x10000620C, symSize: 0x4C }
  - { offsetInCU: 0xC5D5, offset: 0xC5D5, size: 0x8, addend: 0x0, symName: __ZNKSt3__116reverse_iteratorINS0_IP10ExamResultEEEptB7v160006Ev, symObjAddr: 0x2FC8, symBinAddr: 0x100006258, symSize: 0x24 }
  - { offsetInCU: 0xC5FA, offset: 0xC5FA, size: 0x8, addend: 0x0, symName: __ZNKSt3__116reverse_iteratorINS0_IP10ExamResultEEEdeB7v160006Ev, symObjAddr: 0x2FEC, symBinAddr: 0x10000627C, symSize: 0x34 }
  - { offsetInCU: 0xC62D, offset: 0xC62D, size: 0x8, addend: 0x0, symName: __ZNSt3__116reverse_iteratorIP10ExamResultEmmB7v160006Ev, symObjAddr: 0x3020, symBinAddr: 0x1000062B0, symSize: 0x20 }
  - { offsetInCU: 0xC652, offset: 0xC652, size: 0x8, addend: 0x0, symName: __ZNSt3__116reverse_iteratorINS0_IP10ExamResultEEEC2B7v160006ES3_, symObjAddr: 0x3040, symBinAddr: 0x1000062D0, symSize: 0x2C }
  - { offsetInCU: 0xC689, offset: 0xC689, size: 0x8, addend: 0x0, symName: __ZNSt3__116reverse_iteratorIP10ExamResultEC2B7v160006ES2_, symObjAddr: 0x306C, symBinAddr: 0x1000062FC, symSize: 0x28 }
  - { offsetInCU: 0xC6C0, offset: 0xC6C0, size: 0x8, addend: 0x0, symName: __ZNSt3__114__split_bufferI10ExamResultRNS_9allocatorIS1_EEED2Ev, symObjAddr: 0x3094, symBinAddr: 0x100006324, symSize: 0x80 }
  - { offsetInCU: 0xC6EB, offset: 0xC6EB, size: 0x8, addend: 0x0, symName: __ZNSt3__114__split_bufferI10ExamResultRNS_9allocatorIS1_EEE5clearB7v160006Ev, symObjAddr: 0x3114, symBinAddr: 0x1000063A4, symSize: 0x28 }
  - { offsetInCU: 0xC710, offset: 0xC710, size: 0x8, addend: 0x0, symName: __ZNKSt3__114__split_bufferI10ExamResultRNS_9allocatorIS1_EEE8capacityB7v160006Ev, symObjAddr: 0x313C, symBinAddr: 0x1000063CC, symSize: 0x40 }
  - { offsetInCU: 0xC735, offset: 0xC735, size: 0x8, addend: 0x0, symName: __ZNSt3__114__split_bufferI10ExamResultRNS_9allocatorIS1_EEE17__destruct_at_endB7v160006EPS1_, symObjAddr: 0x317C, symBinAddr: 0x10000640C, symSize: 0x2C }
  - { offsetInCU: 0xC767, offset: 0xC767, size: 0x8, addend: 0x0, symName: __ZNSt3__114__split_bufferI10ExamResultRNS_9allocatorIS1_EEE17__destruct_at_endB7v160006EPS1_NS_17integral_constantIbLb0EEE, symObjAddr: 0x31A8, symBinAddr: 0x100006438, symSize: 0x94 }
  - { offsetInCU: 0xC7A7, offset: 0xC7A7, size: 0x8, addend: 0x0, symName: __ZNKSt3__114__split_bufferI10ExamResultRNS_9allocatorIS1_EEE9__end_capB7v160006Ev, symObjAddr: 0x323C, symBinAddr: 0x1000064CC, symSize: 0x28 }
  - { offsetInCU: 0xC7CC, offset: 0xC7CC, size: 0x8, addend: 0x0, symName: __ZNKSt3__117__compressed_pairIP10ExamResultRNS_9allocatorIS1_EEE5firstB7v160006Ev, symObjAddr: 0x3264, symBinAddr: 0x1000064F4, symSize: 0x24 }
  - { offsetInCU: 0xC7F1, offset: 0xC7F1, size: 0x8, addend: 0x0, symName: __ZNSt3__111char_traitsIcE6lengthEPKc, symObjAddr: 0x347C, symBinAddr: 0x10000670C, symSize: 0x48 }
  - { offsetInCU: 0xC832, offset: 0xC832, size: 0x8, addend: 0x0, symName: __ZNKSt3__113basic_ostreamIcNS_11char_traitsIcEEE6sentrycvbB7v160006Ev, symObjAddr: 0x34C4, symBinAddr: 0x100006754, symSize: 0x1C }
  - { offsetInCU: 0xC857, offset: 0xC857, size: 0x8, addend: 0x0, symName: __ZNSt3__119ostreambuf_iteratorIcNS_11char_traitsIcEEEC1B7v160006ERNS_13basic_ostreamIcS2_EE, symObjAddr: 0x3728, symBinAddr: 0x1000069B8, symSize: 0x34 }
  - { offsetInCU: 0xC88E, offset: 0xC88E, size: 0x8, addend: 0x0, symName: __ZNKSt3__18ios_base5flagsB7v160006Ev, symObjAddr: 0x375C, symBinAddr: 0x1000069EC, symSize: 0x18 }
  - { offsetInCU: 0xC8B4, offset: 0xC8B4, size: 0x8, addend: 0x0, symName: __ZNKSt3__19basic_iosIcNS_11char_traitsIcEEE4fillB7v160006Ev, symObjAddr: 0x3774, symBinAddr: 0x100006A04, symSize: 0x64 }
  - { offsetInCU: 0xC8DB, offset: 0xC8DB, size: 0x8, addend: 0x0, symName: __ZNKSt3__119ostreambuf_iteratorIcNS_11char_traitsIcEEE6failedB7v160006Ev, symObjAddr: 0x37D8, symBinAddr: 0x100006A68, symSize: 0x24 }
  - { offsetInCU: 0xC900, offset: 0xC900, size: 0x8, addend: 0x0, symName: __ZNSt3__19basic_iosIcNS_11char_traitsIcEEE8setstateB7v160006Ej, symObjAddr: 0x37FC, symBinAddr: 0x100006A8C, symSize: 0x2C }
  - { offsetInCU: 0xC934, offset: 0xC934, size: 0x8, addend: 0x0, symName: __ZNKSt3__18ios_base5widthB7v160006Ev, symObjAddr: 0x3828, symBinAddr: 0x100006AB8, symSize: 0x18 }
  - { offsetInCU: 0xC95B, offset: 0xC95B, size: 0x8, addend: 0x0, symName: __ZNSt3__115basic_streambufIcNS_11char_traitsIcEEE5sputnB7v160006EPKcl, symObjAddr: 0x3840, symBinAddr: 0x100006AD0, symSize: 0x3C }
  - { offsetInCU: 0xC99C, offset: 0xC99C, size: 0x8, addend: 0x0, symName: __ZNSt3__112basic_stringIcNS_11char_traitsIcEENS_9allocatorIcEEEC1B7v160006Emc, symObjAddr: 0x387C, symBinAddr: 0x100006B0C, symSize: 0x3C }
  - { offsetInCU: 0xC9E3, offset: 0xC9E3, size: 0x8, addend: 0x0, symName: __ZNKSt3__112basic_stringIcNS_11char_traitsIcEENS_9allocatorIcEEE4dataB7v160006Ev, symObjAddr: 0x38B8, symBinAddr: 0x100006B48, symSize: 0x28 }
  - { offsetInCU: 0xCA08, offset: 0xCA08, size: 0x8, addend: 0x0, symName: __ZNSt3__18ios_base5widthB7v160006El, symObjAddr: 0x38E0, symBinAddr: 0x100006B70, symSize: 0x2C }
  - { offsetInCU: 0xCA4D, offset: 0xCA4D, size: 0x8, addend: 0x0, symName: __ZNSt3__112basic_stringIcNS_11char_traitsIcEENS_9allocatorIcEEEC2B7v160006Emc, symObjAddr: 0x390C, symBinAddr: 0x100006B9C, symSize: 0x54 }
  - { offsetInCU: 0xCA94, offset: 0xCA94, size: 0x8, addend: 0x0, symName: __ZNKSt3__112basic_stringIcNS_11char_traitsIcEENS_9allocatorIcEEE13__get_pointerB7v160006Ev, symObjAddr: 0x3974, symBinAddr: 0x100006C04, symSize: 0x54 }
  - { offsetInCU: 0xCAB9, offset: 0xCAB9, size: 0x8, addend: 0x0, symName: __ZNKSt3__112basic_stringIcNS_11char_traitsIcEENS_9allocatorIcEEE9__is_longB7v160006Ev, symObjAddr: 0x39C8, symBinAddr: 0x100006C58, symSize: 0x74 }
  - { offsetInCU: 0xCADE, offset: 0xCADE, size: 0x8, addend: 0x0, symName: __ZNKSt3__112basic_stringIcNS_11char_traitsIcEENS_9allocatorIcEEE18__get_long_pointerB7v160006Ev, symObjAddr: 0x3A3C, symBinAddr: 0x100006CCC, symSize: 0x28 }
  - { offsetInCU: 0xCB03, offset: 0xCB03, size: 0x8, addend: 0x0, symName: __ZNKSt3__112basic_stringIcNS_11char_traitsIcEENS_9allocatorIcEEE19__get_short_pointerB7v160006Ev, symObjAddr: 0x3A64, symBinAddr: 0x100006CF4, symSize: 0x28 }
  - { offsetInCU: 0xCB28, offset: 0xCB28, size: 0x8, addend: 0x0, symName: __ZNKSt3__117__compressed_pairINS_12basic_stringIcNS_11char_traitsIcEENS_9allocatorIcEEE5__repES5_E5firstB7v160006Ev, symObjAddr: 0x3A8C, symBinAddr: 0x100006D1C, symSize: 0x24 }
  - { offsetInCU: 0xCB4D, offset: 0xCB4D, size: 0x8, addend: 0x0, symName: __ZNKSt3__122__compressed_pair_elemINS_12basic_stringIcNS_11char_traitsIcEENS_9allocatorIcEEE5__repELi0ELb0EE5__getB7v160006Ev, symObjAddr: 0x3AB0, symBinAddr: 0x100006D40, symSize: 0x14 }
  - { offsetInCU: 0xCB72, offset: 0xCB72, size: 0x8, addend: 0x0, symName: __ZNSt3__114pointer_traitsIPKcE10pointer_toB7v160006ERS1_, symObjAddr: 0x3AC4, symBinAddr: 0x100006D54, symSize: 0x14 }
  - { offsetInCU: 0xCB95, offset: 0xCB95, size: 0x8, addend: 0x0, symName: __ZNSt3__119ostreambuf_iteratorIcNS_11char_traitsIcEEEC2B7v160006ERNS_13basic_ostreamIcS2_EE, symObjAddr: 0x3AD8, symBinAddr: 0x100006D68, symSize: 0x68 }
  - { offsetInCU: 0xCBCB, offset: 0xCBCB, size: 0x8, addend: 0x0, symName: __ZNKSt3__19basic_iosIcNS_11char_traitsIcEEE5rdbufB7v160006Ev, symObjAddr: 0x3B40, symBinAddr: 0x100006DD0, symSize: 0x24 }
  - { offsetInCU: 0xCBF2, offset: 0xCBF2, size: 0x8, addend: 0x0, symName: __ZNKSt3__18ios_base5rdbufB7v160006Ev, symObjAddr: 0x3B64, symBinAddr: 0x100006DF4, symSize: 0x18 }
  - { offsetInCU: 0xCC17, offset: 0xCC17, size: 0x8, addend: 0x0, symName: __ZNSt3__111char_traitsIcE11eq_int_typeEii, symObjAddr: 0x3B7C, symBinAddr: 0x100006E0C, symSize: 0x28 }
  - { offsetInCU: 0xCC48, offset: 0xCC48, size: 0x8, addend: 0x0, symName: __ZNSt3__111char_traitsIcE3eofEv, symObjAddr: 0x3BA4, symBinAddr: 0x100006E34, symSize: 0x8 }
  - { offsetInCU: 0xCC5B, offset: 0xCC5B, size: 0x8, addend: 0x0, symName: __ZNKSt3__19basic_iosIcNS_11char_traitsIcEEE5widenB7v160006Ec, symObjAddr: 0x3BAC, symBinAddr: 0x100006E3C, symSize: 0x8C }
  - { offsetInCU: 0xCCC8, offset: 0xCCC8, size: 0x8, addend: 0x0, symName: __ZNKSt3__15ctypeIcE5widenB7v160006Ec, symObjAddr: 0x3C64, symBinAddr: 0x100006EF4, symSize: 0x38 }
  - { offsetInCU: 0xCCFB, offset: 0xCCFB, size: 0x8, addend: 0x0, symName: __ZNSt3__18ios_base8setstateB7v160006Ej, symObjAddr: 0x3C9C, symBinAddr: 0x100006F2C, symSize: 0x34 }
  - { offsetInCU: 0xCD31, offset: 0xCD31, size: 0x8, addend: 0x0, symName: __ZNSt3__16vectorI10ExamResultNS_9allocatorIS1_EEE11__make_iterB7v160006EPS1_, symObjAddr: 0x3CF4, symBinAddr: 0x100006F84, symSize: 0x34 }
  - { offsetInCU: 0xCD65, offset: 0xCD65, size: 0x8, addend: 0x0, symName: __ZNSt3__111__wrap_iterIP10ExamResultEC1B7v160006EPKvS2_, symObjAddr: 0x3D28, symBinAddr: 0x100006FB8, symSize: 0x3C }
  - { offsetInCU: 0xCDAA, offset: 0xCDAA, size: 0x8, addend: 0x0, symName: __ZNSt3__111__wrap_iterIP10ExamResultEC2B7v160006EPKvS2_, symObjAddr: 0x3D64, symBinAddr: 0x100006FF4, symSize: 0x24 }
  - { offsetInCU: 0xCDEF, offset: 0xCDEF, size: 0x8, addend: 0x0, symName: __ZNKSt3__111__wrap_iterIP10ExamResultE4baseB7v160006Ev, symObjAddr: 0x3DD0, symBinAddr: 0x100007060, symSize: 0x18 }
  - { offsetInCU: 0xCE14, offset: 0xCE14, size: 0x8, addend: 0x0, symName: __ZNSt3__19basic_iosIcNS_11char_traitsIcEEEC2B7v160006Ev, symObjAddr: 0x3DE8, symBinAddr: 0x100007078, symSize: 0x44 }
  - { offsetInCU: 0xCE3D, offset: 0xCE3D, size: 0x8, addend: 0x0, symName: __ZNSt3__113basic_istreamIcNS_11char_traitsIcEEEC2B7v160006EPNS_15basic_streambufIcS2_EE, symObjAddr: 0x3E2C, symBinAddr: 0x1000070BC, symSize: 0x64 }
  - { offsetInCU: 0xCE80, offset: 0xCE80, size: 0x8, addend: 0x0, symName: __ZNSt3__115basic_stringbufIcNS_11char_traitsIcEENS_9allocatorIcEEEC1B7v160006ERKNS_12basic_stringIcS2_S4_EEj, symObjAddr: 0x3E90, symBinAddr: 0x100007120, symSize: 0x3C }
  - { offsetInCU: 0xCEC5, offset: 0xCEC5, size: 0x8, addend: 0x0, symName: __ZNSt3__18ios_baseC2B7v160006Ev, symObjAddr: 0x3ECC, symBinAddr: 0x10000715C, symSize: 0x24 }
  - { offsetInCU: 0xCEED, offset: 0xCEED, size: 0x8, addend: 0x0, symName: __ZNSt3__19basic_iosIcNS_11char_traitsIcEEE4initB7v160006EPNS_15basic_streambufIcS2_EE, symObjAddr: 0x3EF0, symBinAddr: 0x100007180, symSize: 0x44 }
  - { offsetInCU: 0xCF23, offset: 0xCF23, size: 0x8, addend: 0x0, symName: __ZNSt3__115basic_stringbufIcNS_11char_traitsIcEENS_9allocatorIcEEEC2B7v160006ERKNS_12basic_stringIcS2_S4_EEj, symObjAddr: 0x3F34, symBinAddr: 0x1000071C4, symSize: 0xD8 }
  - { offsetInCU: 0xCF68, offset: 0xCF68, size: 0x8, addend: 0x0, symName: __ZNKSt3__112basic_stringIcNS_11char_traitsIcEENS_9allocatorIcEEE13get_allocatorB7v160006Ev, symObjAddr: 0x400C, symBinAddr: 0x10000729C, symSize: 0x24 }
  - { offsetInCU: 0xCF8D, offset: 0xCF8D, size: 0x8, addend: 0x0, symName: __ZNSt3__112basic_stringIcNS_11char_traitsIcEENS_9allocatorIcEEEC1B7v160006ERKS4_, symObjAddr: 0x4030, symBinAddr: 0x1000072C0, symSize: 0x34 }
  - { offsetInCU: 0xCFC5, offset: 0xCFC5, size: 0x8, addend: 0x0, symName: __ZNKSt3__112basic_stringIcNS_11char_traitsIcEENS_9allocatorIcEEE7__allocB7v160006Ev, symObjAddr: 0x4064, symBinAddr: 0x1000072F4, symSize: 0x24 }
  - { offsetInCU: 0xCFEA, offset: 0xCFEA, size: 0x8, addend: 0x0, symName: __ZNKSt3__117__compressed_pairINS_12basic_stringIcNS_11char_traitsIcEENS_9allocatorIcEEE5__repES5_E6secondB7v160006Ev, symObjAddr: 0x4088, symBinAddr: 0x100007318, symSize: 0x24 }
  - { offsetInCU: 0xD00F, offset: 0xD00F, size: 0x8, addend: 0x0, symName: __ZNKSt3__122__compressed_pair_elemINS_9allocatorIcEELi1ELb1EE5__getB7v160006Ev, symObjAddr: 0x40AC, symBinAddr: 0x10000733C, symSize: 0x14 }
  - { offsetInCU: 0xD034, offset: 0xD034, size: 0x8, addend: 0x0, symName: __ZNSt3__112basic_stringIcNS_11char_traitsIcEENS_9allocatorIcEEEC2B7v160006ERKS4_, symObjAddr: 0x40C0, symBinAddr: 0x100007350, symSize: 0x48 }
  - { offsetInCU: 0xD06C, offset: 0xD06C, size: 0x8, addend: 0x0, symName: __ZNSt3__117__compressed_pairINS_12basic_stringIcNS_11char_traitsIcEENS_9allocatorIcEEE5__repES5_EC1B7v160006INS_18__default_init_tagERKS5_EEOT_OT0_, symObjAddr: 0x4108, symBinAddr: 0x100007398, symSize: 0x3C }
  - { offsetInCU: 0xD0C3, offset: 0xD0C3, size: 0x8, addend: 0x0, symName: __ZNSt3__117__compressed_pairINS_12basic_stringIcNS_11char_traitsIcEENS_9allocatorIcEEE5__repES5_EC2B7v160006INS_18__default_init_tagERKS5_EEOT_OT0_, symObjAddr: 0x4144, symBinAddr: 0x1000073D4, symSize: 0x40 }
  - { offsetInCU: 0xD11A, offset: 0xD11A, size: 0x8, addend: 0x0, symName: __ZNSt3__122__compressed_pair_elemINS_9allocatorIcEELi1ELb1EEC2B7v160006IRKS2_vEEOT_, symObjAddr: 0x4184, symBinAddr: 0x100007414, symSize: 0x18 }
  - { offsetInCU: 0xD179, offset: 0xD179, size: 0x8, addend: 0x0, symName: __ZNKSt3__113basic_istreamIcNS_11char_traitsIcEEE6sentrycvbB7v160006Ev, symObjAddr: 0x419C, symBinAddr: 0x10000742C, symSize: 0x1C }
  - { offsetInCU: 0xD19E, offset: 0xD19E, size: 0x8, addend: 0x0, symName: __ZNSt3__115basic_streambufIcNS_11char_traitsIcEEE6sbumpcB7v160006Ev, symObjAddr: 0x41B8, symBinAddr: 0x100007448, symSize: 0x78 }
  - { offsetInCU: 0xD1C3, offset: 0xD1C3, size: 0x8, addend: 0x0, symName: __ZNSt3__111char_traitsIcE12to_char_typeEi, symObjAddr: 0x4230, symBinAddr: 0x1000074C0, symSize: 0x18 }
  - { offsetInCU: 0xD1E6, offset: 0xD1E6, size: 0x8, addend: 0x0, symName: __ZNSt3__18ios_base18__setstate_nothrowB7v160006Ej, symObjAddr: 0x4248, symBinAddr: 0x1000074D8, symSize: 0x64 }
  - { offsetInCU: 0xD21A, offset: 0xD21A, size: 0x8, addend: 0x0, symName: __ZNKSt3__19basic_iosIcNS_11char_traitsIcEEE10exceptionsB7v160006Ev, symObjAddr: 0x42AC, symBinAddr: 0x10000753C, symSize: 0x24 }
  - { offsetInCU: 0xD23F, offset: 0xD23F, size: 0x8, addend: 0x0, symName: __ZNSt3__111char_traitsIcE11to_int_typeEc, symObjAddr: 0x42D0, symBinAddr: 0x100007560, symSize: 0x14 }
  - { offsetInCU: 0xD262, offset: 0xD262, size: 0x8, addend: 0x0, symName: __ZNKSt3__18ios_base10exceptionsB7v160006Ev, symObjAddr: 0x42E4, symBinAddr: 0x100007574, symSize: 0x18 }
  - { offsetInCU: 0xD289, offset: 0xD289, size: 0x8, addend: 0x0, symName: __ZNKSt3__112basic_stringIcNS_11char_traitsIcEENS_9allocatorIcEEE4sizeB7v160006Ev, symObjAddr: 0x42FC, symBinAddr: 0x10000758C, symSize: 0x54 }
  - { offsetInCU: 0xD2AE, offset: 0xD2AE, size: 0x8, addend: 0x0, symName: __ZNKSt3__112basic_stringIcNS_11char_traitsIcEENS_9allocatorIcEEE15__get_long_sizeB7v160006Ev, symObjAddr: 0x4350, symBinAddr: 0x1000075E0, symSize: 0x28 }
  - { offsetInCU: 0xD2D3, offset: 0xD2D3, size: 0x8, addend: 0x0, symName: __ZNKSt3__112basic_stringIcNS_11char_traitsIcEENS_9allocatorIcEEE16__get_short_sizeB7v160006Ev, symObjAddr: 0x4378, symBinAddr: 0x100007608, symSize: 0x34 }
...
